; Function Attrs: mustprogress nofree norecurse nosync nounwind willreturn memory(readwrite, inaccessiblemem: none) uwtable
define internal noundef i32 @rhsQBS1(double %0, ptr noundef readonly captures(none) %1, ptr readnone captures(none) %2, ptr noundef readonly captures(none) %3, ptr readnone captures(none) %4, ptr noundef readonly captures(none) %5, ptr readnone captures(none) %6, ptr noundef readonly captures(none) %7, ptr readnone captures(none) %8) #5 {
  %10 = load ptr, ptr %1, align 8, !tbaa !11
  %11 = getelementptr inbounds nuw i8, ptr %10, i64 16
  %12 = load ptr, ptr %11, align 8, !tbaa !14
  %13 = load double, ptr %12, align 8, !tbaa !9
  %14 = getelementptr inbounds nuw i8, ptr %12, i64 8
  %15 = load double, ptr %14, align 8, !tbaa !9
  %16 = getelementptr inbounds nuw i8, ptr %12, i64 16
  %17 = load double, ptr %16, align 8, !tbaa !9
  %18 = load ptr, ptr %5, align 8, !tbaa !11
  %19 = getelementptr inbounds nuw i8, ptr %18, i64 16
  %20 = load ptr, ptr %19, align 8, !tbaa !14
  %21 = load double, ptr %20, align 8, !tbaa !9
  %22 = getelementptr inbounds nuw i8, ptr %20, i64 8
  %23 = load double, ptr %22, align 8, !tbaa !9
  %24 = getelementptr inbounds nuw i8, ptr %20, i64 24
  %25 = load double, ptr %24, align 8, !tbaa !9
  %26 = getelementptr inbounds nuw i8, ptr %20, i64 32
  %27 = load double, ptr %26, align 8, !tbaa !9
  %28 = load ptr, ptr %3, align 8, !tbaa !19
  %29 = load ptr, ptr %28, align 8, !tbaa !11
  %30 = getelementptr inbounds nuw i8, ptr %29, i64 16
  %31 = load ptr, ptr %30, align 8, !tbaa !14
  %32 = load double, ptr %31, align 8, !tbaa !9
  %33 = getelementptr inbounds nuw i8, ptr %31, i64 8
  %34 = load double, ptr %33, align 8, !tbaa !9
  %35 = getelementptr inbounds nuw i8, ptr %31, i64 16
  %36 = load double, ptr %35, align 8, !tbaa !9
  %37 = fsub double %23, %21
  %38 = fneg double %13
  %39 = fmul double %37, %38
  %40 = load ptr, ptr %7, align 8, !tbaa !11
  %41 = getelementptr inbounds nuw i8, ptr %40, i64 16
  %42 = load ptr, ptr %41, align 8, !tbaa !14
  store double %39, ptr %42, align 8, !tbaa !9
  %43 = fmul double %15, %17
  %44 = fmul double %43, %37
  %45 = getelementptr inbounds nuw i8, ptr %42, i64 8
  store double %44, ptr %45, align 8, !tbaa !9
  %46 = fsub double %25, %27
  %47 = fneg double %37
  %48 = fmul double %32, %47
  %49 = tail call double @llvm.fmuladd.f64(double %13, double %46, double %48)
  %50 = getelementptr inbounds nuw i8, ptr %42, i64 16
  store double %49, ptr %50, align 8, !tbaa !9
  %51 = fsub double %27, %25
  %52 = fmul double %15, %36
  %53 = tail call double @llvm.fmuladd.f64(double %17, double %34, double %52)
  %54 = fmul double %37, %53
  %55 = tail call double @llvm.fmuladd.f64(double %43, double %51, double %54)
  %56 = getelementptr inbounds nuw i8, ptr %42, i64 24
  store double %55, ptr %56, align 8, !tbaa !9
  ret i32 0
}